target datalayout = "e-m:e-p270:32:32-p271:32:32-p272:64:64-i64:64-i128:128-f80:128-n8:16:32:64-S128"
target triple = "x86_64-unknown-linux-gnu"

%struct.MACAddr = type { [6 x i8] }
%struct.of_dpa_flow_key = type { i32, i32, i32, %struct.anon, %struct.anon.0, %union.anon, i32 }
%struct.anon = type { i16, %struct.MACAddr, %struct.MACAddr, i16 }
%struct.anon.0 = type { i8, i8, i8, i8 }
%union.anon = type { %struct.anon.6 }
%struct.anon.6 = type { %struct.anon.7, i32, %struct.anon.9, %struct.anon.10 }
%struct.anon.7 = type { %struct.ipv6_addr, %struct.ipv6_addr }
%struct.ipv6_addr = type { %union.anon.8 }
%union.anon.8 = type { [4 x i32] }
%struct.anon.9 = type { i16, i16, i16 }
%struct.anon.10 = type { %struct.ipv6_addr, %struct.MACAddr, %struct.MACAddr }
%struct.of_dpa_flow_action = type { i32, %struct.anon.11, %struct.anon.12 }
%struct.anon.11 = type { i32, i32, i16 }
%struct.anon.12 = type { i16, i32, i8, i16 }
%struct.of_dpa_flow_context = type { i32, i32, ptr, i32, %struct.eth_header, %struct.vlan_header, %struct.vlan_header, ptr, %struct.of_dpa_flow_pkt_fields, %struct.of_dpa_flow_action }
%struct.eth_header = type { [6 x i8], [6 x i8], i16 }
%struct.vlan_header = type { i16, i16 }
%struct.of_dpa_flow_pkt_fields = type { i32, ptr, ptr, ptr, ptr, ptr, ptr, ptr }
%struct.of_dpa_flow_match = type { %struct.of_dpa_flow_key, ptr }

; Function Attrs: nounwind sspstrong uwtable
define internal void @of_dpa_bridging_build_match(ptr noundef %fc, ptr noundef %match) #0 {
entry:
  %fc.addr = alloca ptr, align 8
  %match.addr = alloca ptr, align 8
  store ptr %fc, ptr %fc.addr, align 8
  store ptr %match, ptr %match.addr, align 8
  %0 = load ptr, ptr %match.addr, align 8
  %value = getelementptr inbounds %struct.of_dpa_flow_match, ptr %0, i32 0, i32 0
  %tbl_id = getelementptr inbounds %struct.of_dpa_flow_key, ptr %value, i32 0, i32 2
  store i32 50, ptr %tbl_id, align 8
  %1 = load ptr, ptr %fc.addr, align 8
  %fields = getelementptr inbounds %struct.of_dpa_flow_context, ptr %1, i32 0, i32 8
  %vlanhdr = getelementptr inbounds %struct.of_dpa_flow_pkt_fields, ptr %fields, i32 0, i32 3
  %2 = load ptr, ptr %vlanhdr, align 8
  %tobool = icmp ne ptr %2, null
  br i1 %tobool, label %if.then, label %if.else

if.then:                                          ; preds = %entry
  %3 = load ptr, ptr %fc.addr, align 8
  %fields1 = getelementptr inbounds %struct.of_dpa_flow_context, ptr %3, i32 0, i32 8
  %vlanhdr2 = getelementptr inbounds %struct.of_dpa_flow_pkt_fields, ptr %fields1, i32 0, i32 3
  %4 = load ptr, ptr %vlanhdr2, align 8
  %h_tci = getelementptr inbounds %struct.vlan_header, ptr %4, i32 0, i32 0
  %5 = load i16, ptr %h_tci, align 2
  %6 = load ptr, ptr %match.addr, align 8
  %value3 = getelementptr inbounds %struct.of_dpa_flow_match, ptr %6, i32 0, i32 0
  %eth = getelementptr inbounds %struct.of_dpa_flow_key, ptr %value3, i32 0, i32 3
  %vlan_id = getelementptr inbounds %struct.anon, ptr %eth, i32 0, i32 0
  store i16 %5, ptr %vlan_id, align 4
  br label %if.end9

if.else:                                          ; preds = %entry
  %7 = load ptr, ptr %fc.addr, align 8
  %tunnel_id = getelementptr inbounds %struct.of_dpa_flow_context, ptr %7, i32 0, i32 1
  %8 = load i32, ptr %tunnel_id, align 4
  %tobool4 = icmp ne i32 %8, 0
  br i1 %tobool4, label %if.then5, label %if.end

if.then5:                                         ; preds = %if.else
  %9 = load ptr, ptr %fc.addr, align 8
  %tunnel_id6 = getelementptr inbounds %struct.of_dpa_flow_context, ptr %9, i32 0, i32 1
  %10 = load i32, ptr %tunnel_id6, align 4
  %11 = load ptr, ptr %match.addr, align 8
  %value7 = getelementptr inbounds %struct.of_dpa_flow_match, ptr %11, i32 0, i32 0
  %tunnel_id8 = getelementptr inbounds %struct.of_dpa_flow_key, ptr %value7, i32 0, i32 1
  store i32 %10, ptr %tunnel_id8, align 4
  br label %if.end

if.end:                                           ; preds = %if.then5, %if.else
  br label %if.end9

if.end9:                                          ; preds = %if.end, %if.then
  %12 = load ptr, ptr %match.addr, align 8
  %value10 = getelementptr inbounds %struct.of_dpa_flow_match, ptr %12, i32 0, i32 0
  %eth11 = getelementptr inbounds %struct.of_dpa_flow_key, ptr %value10, i32 0, i32 3
  %dst = getelementptr inbounds %struct.anon, ptr %eth11, i32 0, i32 2
  %a = getelementptr inbounds %struct.MACAddr, ptr %dst, i32 0, i32 0
  %arraydecay = getelementptr inbounds [6 x i8], ptr %a, i64 0, i64 0
  %13 = load ptr, ptr %fc.addr, align 8
  %fields12 = getelementptr inbounds %struct.of_dpa_flow_context, ptr %13, i32 0, i32 8
  %ethhdr = getelementptr inbounds %struct.of_dpa_flow_pkt_fields, ptr %fields12, i32 0, i32 1
  %14 = load ptr, ptr %ethhdr, align 8
  %h_dest = getelementptr inbounds %struct.eth_header, ptr %14, i32 0, i32 0
  %arraydecay13 = getelementptr inbounds [6 x i8], ptr %h_dest, i64 0, i64 0
  call void @llvm.memcpy.p0.p0.i64(ptr align 4 %arraydecay, ptr align 2 %arraydecay13, i64 6, i1 false)
  %15 = load ptr, ptr %match.addr, align 8
  %value14 = getelementptr inbounds %struct.of_dpa_flow_match, ptr %15, i32 0, i32 0
  %width = getelementptr inbounds %struct.of_dpa_flow_key, ptr %value14, i32 0, i32 6
  store i32 4, ptr %width, align 8
  ret void
}