; Function Attrs: mustprogress nofree norecurse nosync nounwind sspstrong willreturn memory(readwrite, inaccessiblemem: none) uwtable
define internal void @of_dpa_bridging_build_match(ptr noundef readonly captures(none) %fc, ptr noundef writeonly captures(none) initializes((8, 12), (20, 26), (104, 108)) %match) #13 {
entry:
  %tbl_id = getelementptr inbounds nuw i8, ptr %match, i64 8
  store i32 50, ptr %tbl_id, align 8
  %vlanhdr = getelementptr inbounds nuw i8, ptr %fc, i64 80
  %0 = load ptr, ptr %vlanhdr, align 8
  %tobool.not = icmp eq ptr %0, null
  br i1 %tobool.not, label %if.else, label %if.then

if.then:                                          ; preds = %entry
  %1 = load i16, ptr %0, align 2
  %eth = getelementptr inbounds nuw i8, ptr %match, i64 12
  store i16 %1, ptr %eth, align 4
  br label %if.end9

if.else:                                          ; preds = %entry
  %tunnel_id = getelementptr inbounds nuw i8, ptr %fc, i64 4
  %2 = load i32, ptr %tunnel_id, align 4
  %tobool4.not = icmp eq i32 %2, 0
  br i1 %tobool4.not, label %if.end9, label %if.then5

if.then5:                                         ; preds = %if.else
  %tunnel_id8 = getelementptr inbounds nuw i8, ptr %match, i64 4
  store i32 %2, ptr %tunnel_id8, align 4
  br label %if.end9

if.end9:                                          ; preds = %if.else, %if.then5, %if.then
  %dst = getelementptr inbounds nuw i8, ptr %match, i64 20
  %ethhdr = getelementptr inbounds nuw i8, ptr %fc, i64 64
  %3 = load ptr, ptr %ethhdr, align 8
  tail call void @llvm.memcpy.p0.p0.i64(ptr noundef nonnull align 4 dereferenceable(6) %dst, ptr noundef nonnull align 2 dereferenceable(6) %3, i64 6, i1 false)
  %width = getelementptr inbounds nuw i8, ptr %match, i64 104
  store i32 4, ptr %width, align 8
  ret void
}